; Function Attrs: nounwind uwtable
define range(i32 0, 2) i32 @stbi_is_hdr(ptr noundef readonly captures(none) %0) local_unnamed_addr #2 {
  %2 = alloca %struct.stbi__context, align 8
  %3 = tail call noalias noundef ptr @fopen(ptr noundef readonly %0, ptr noundef nonnull @.str.2)
  %.not = icmp eq ptr %3, null
  br i1 %.not, label %35, label %4

4:                                                ; preds = %1
  %5 = tail call i64 @ftell(ptr noundef nonnull %3)
  call void @llvm.lifetime.start.p0(i64 224, ptr nonnull %2) #37
  %6 = getelementptr inbounds nuw i8, ptr %2, i64 16
  call void @llvm.memcpy.p0.p0.i64(ptr noundef nonnull align 8 dereferenceable(24) %6, ptr noundef nonnull align 8 dereferenceable(24) @stbi__stdio_callbacks, i64 24, i1 false), !tbaa.struct !17
  %7 = getelementptr inbounds nuw i8, ptr %2, i64 40
  store ptr %3, ptr %7, align 8, !tbaa !19
  %8 = getelementptr inbounds nuw i8, ptr %2, i64 52
  store i32 128, ptr %8, align 4, !tbaa !20
  %9 = getelementptr inbounds nuw i8, ptr %2, i64 48
  store i32 1, ptr %9, align 8, !tbaa !11
  %10 = getelementptr inbounds nuw i8, ptr %2, i64 184
  store i32 0, ptr %10, align 8, !tbaa !12
  %11 = getelementptr inbounds nuw i8, ptr %2, i64 56
  %12 = getelementptr inbounds nuw i8, ptr %2, i64 208
  store ptr %11, ptr %12, align 8, !tbaa !13
  %13 = getelementptr inbounds nuw i8, ptr %2, i64 192
  store ptr %11, ptr %13, align 8, !tbaa !14
  %14 = load ptr, ptr %6, align 8, !tbaa !3
  %15 = call i32 %14(ptr noundef nonnull %3, ptr noundef nonnull %11, i32 noundef 128) #37
  %16 = load ptr, ptr %13, align 8, !tbaa !14
  %17 = load ptr, ptr %12, align 8, !tbaa !13
  %18 = ptrtoint ptr %16 to i64
  %19 = ptrtoint ptr %17 to i64
  %20 = sub i64 %18, %19
  %21 = trunc i64 %20 to i32
  %22 = load i32, ptr %10, align 8, !tbaa !12
  %23 = add nsw i32 %22, %21
  store i32 %23, ptr %10, align 8, !tbaa !12
  %24 = icmp eq i32 %15, 0
  br i1 %24, label %25, label %27

25:                                               ; preds = %4
  store i32 0, ptr %9, align 8, !tbaa !11
  %26 = getelementptr inbounds nuw i8, ptr %2, i64 57
  store i8 0, ptr %11, align 8, !tbaa !21
  br label %stbi_is_hdr_from_file.exit

27:                                               ; preds = %4
  %28 = sext i32 %15 to i64
  %29 = getelementptr inbounds i8, ptr %11, i64 %28
  br label %stbi_is_hdr_from_file.exit

stbi_is_hdr_from_file.exit:                       ; preds = %25, %27
  %.sink.i.i.i.i = phi ptr [ %26, %25 ], [ %29, %27 ]
  store ptr %11, ptr %13, align 8, !tbaa !14
  %30 = getelementptr inbounds nuw i8, ptr %2, i64 200
  store ptr %.sink.i.i.i.i, ptr %30, align 8, !tbaa !16
  %31 = getelementptr inbounds nuw i8, ptr %2, i64 216
  store ptr %.sink.i.i.i.i, ptr %31, align 8, !tbaa !15
  %32 = call i32 @stbi__hdr_test(ptr noundef nonnull %2)
  %33 = call i32 @fseek(ptr noundef nonnull %3, i64 noundef %5, i32 noundef 0)
  call void @llvm.lifetime.end.p0(i64 224, ptr nonnull %2) #37
  %34 = call i32 @fclose(ptr noundef nonnull %3)
  br label %35

35:                                               ; preds = %stbi_is_hdr_from_file.exit, %1
  %.0 = phi i32 [ %32, %stbi_is_hdr_from_file.exit ], [ 0, %1 ]
  ret i32 %.0
}